target datalayout = "e-m:e-p270:32:32-p271:32:32-p272:64:64-i64:64-i128:128-f80:128-n8:16:32:64-S128"
target triple = "x86_64-pc-linux-gnu"

%struct.lv_style_t = type { ptr, i32, i8 }
%union.lv_style_value_t = type { ptr }

; Function Attrs: inlinehint nounwind uwtable
define internal i32 @lv_style_get_prop_group(i8 noundef zeroext %0) #1 {
  %2 = alloca i8, align 1
  %3 = alloca i32, align 4
  store i8 %0, ptr %2, align 1, !tbaa !13
  call void @llvm.lifetime.start.p0(i64 4, ptr %3) #6
  %4 = load i8, ptr %2, align 1, !tbaa !13
  %5 = zext i8 %4 to i32
  %6 = ashr i32 %5, 2
  store i32 %6, ptr %3, align 4, !tbaa !26
  %7 = load i32, ptr %3, align 4, !tbaa !26
  %8 = icmp ugt i32 %7, 30
  br i1 %8, label %9, label %10

9:                                                ; preds = %1
  store i32 31, ptr %3, align 4, !tbaa !26
  br label %10

10:                                               ; preds = %9, %1
  %11 = load i32, ptr %3, align 4, !tbaa !26
  call void @llvm.lifetime.end.p0(i64 4, ptr %3) #6
  ret i32 %11
}

; Function Attrs: inlinehint nounwind uwtable
define internal zeroext i1 @lv_style_is_const(ptr noundef %0) #1 {
  %2 = alloca i1, align 1
  %3 = alloca ptr, align 8
  store ptr %0, ptr %3, align 8, !tbaa !3
  %4 = load ptr, ptr %3, align 8, !tbaa !3
  %5 = getelementptr inbounds nuw %struct.lv_style_t, ptr %4, i32 0, i32 2
  %6 = load i8, ptr %5, align 4, !tbaa !9
  %7 = zext i8 %6 to i32
  %8 = icmp eq i32 %7, 255
  br i1 %8, label %9, label %10

9:                                                ; preds = %1
  store i1 true, ptr %2, align 1
  br label %11

10:                                               ; preds = %1
  store i1 false, ptr %2, align 1
  br label %11

11:                                               ; preds = %10, %9
  %12 = load i1, ptr %2, align 1
  ret i1 %12
}

; Function Attrs: nounwind uwtable
define void @lv_style_set_prop(ptr noundef %0, i8 noundef zeroext %1, ptr %2) #0 {
  %4 = alloca %union.lv_style_value_t, align 8
  %5 = alloca ptr, align 8
  %6 = alloca i8, align 1
  %7 = alloca ptr, align 8
  %8 = alloca i32, align 4
  %9 = alloca ptr, align 8
  %10 = alloca i32, align 4
  %11 = alloca i64, align 8
  %12 = alloca ptr, align 8
  %13 = alloca ptr, align 8
  %14 = alloca i32, align 4
  %15 = getelementptr inbounds nuw %union.lv_style_value_t, ptr %4, i32 0, i32 0
  store ptr %2, ptr %15, align 8
  store ptr %0, ptr %5, align 8, !tbaa !3
  store i8 %1, ptr %6, align 1, !tbaa !13
  br label %16

16:                                               ; preds = %3
  br label %17

17:                                               ; preds = %16
  %18 = load ptr, ptr %5, align 8, !tbaa !3
  %19 = call zeroext i1 @lv_style_is_const(ptr noundef %18)
  br i1 %19, label %20, label %23

20:                                               ; preds = %17
  br label %21

21:                                               ; preds = %20
  br label %22

22:                                               ; preds = %21
  br label %169

23:                                               ; preds = %17
  br label %24

24:                                               ; preds = %23
  %25 = load i8, ptr %6, align 1, !tbaa !13
  %26 = zext i8 %25 to i32
  %27 = icmp ne i32 %26, 0
  br i1 %27, label %32, label %28

28:                                               ; preds = %24
  br label %29

29:                                               ; preds = %28
  br label %30

30:                                               ; preds = %29
  br label %31

31:                                               ; preds = %30, %31
  br label %31

32:                                               ; preds = %24
  br label %33

33:                                               ; preds = %32
  call void @llvm.lifetime.start.p0(i64 8, ptr %7) #6
  call void @llvm.lifetime.start.p0(i64 4, ptr %8) #6
  %34 = load ptr, ptr %5, align 8, !tbaa !3
  %35 = getelementptr inbounds nuw %struct.lv_style_t, ptr %34, i32 0, i32 0
  %36 = load ptr, ptr %35, align 8, !tbaa !12
  %37 = icmp ne ptr %36, null
  br i1 %37, label %38, label %79

38:                                               ; preds = %33
  %39 = load ptr, ptr %5, align 8, !tbaa !3
  %40 = getelementptr inbounds nuw %struct.lv_style_t, ptr %39, i32 0, i32 0
  %41 = load ptr, ptr %40, align 8, !tbaa !12
  %42 = load ptr, ptr %5, align 8, !tbaa !3
  %43 = getelementptr inbounds nuw %struct.lv_style_t, ptr %42, i32 0, i32 2
  %44 = load i8, ptr %43, align 4, !tbaa !9
  %45 = zext i8 %44 to i64
  %46 = mul i64 %45, 8
  %47 = getelementptr inbounds nuw i8, ptr %41, i64 %46
  store ptr %47, ptr %7, align 8, !tbaa !3
  %48 = load ptr, ptr %5, align 8, !tbaa !3
  %49 = getelementptr inbounds nuw %struct.lv_style_t, ptr %48, i32 0, i32 2
  %50 = load i8, ptr %49, align 4, !tbaa !9
  %51 = zext i8 %50 to i32
  %52 = sub nsw i32 %51, 1
  store i32 %52, ptr %8, align 4, !tbaa !26
  br label %53

53:                                               ; preds = %75, %38
  %54 = load i32, ptr %8, align 4, !tbaa !26
  %55 = icmp sge i32 %54, 0
  br i1 %55, label %56, label %78

56:                                               ; preds = %53
  %57 = load ptr, ptr %7, align 8, !tbaa !3
  %58 = load i32, ptr %8, align 4, !tbaa !26
  %59 = sext i32 %58 to i64
  %60 = getelementptr inbounds i8, ptr %57, i64 %59
  %61 = load i8, ptr %60, align 1, !tbaa !13
  %62 = zext i8 %61 to i32
  %63 = load i8, ptr %6, align 1, !tbaa !13
  %64 = zext i8 %63 to i32
  %65 = icmp eq i32 %62, %64
  br i1 %65, label %66, label %74

66:                                               ; preds = %56
  call void @llvm.lifetime.start.p0(i64 8, ptr %9) #6
  %67 = load ptr, ptr %5, align 8, !tbaa !3
  %68 = getelementptr inbounds nuw %struct.lv_style_t, ptr %67, i32 0, i32 0
  %69 = load ptr, ptr %68, align 8, !tbaa !12
  store ptr %69, ptr %9, align 8, !tbaa !3
  %70 = load ptr, ptr %9, align 8, !tbaa !3
  %71 = load i32, ptr %8, align 4, !tbaa !26
  %72 = sext i32 %71 to i64
  %73 = getelementptr inbounds %union.lv_style_value_t, ptr %70, i64 %72
  call void @llvm.memcpy.p0.p0.i64(ptr align 8 %73, ptr align 8 %4, i64 8, i1 false), !tbaa.struct !27
  store i32 1, ptr %10, align 4
  call void @llvm.lifetime.end.p0(i64 8, ptr %9) #6
  br label %167

74:                                               ; preds = %56
  br label %75

75:                                               ; preds = %74
  %76 = load i32, ptr %8, align 4, !tbaa !26
  %77 = add nsw i32 %76, -1
  store i32 %77, ptr %8, align 4, !tbaa !26
  br label %53, !llvm.loop !31

78:                                               ; preds = %53
  br label %79

79:                                               ; preds = %78, %33
  call void @llvm.lifetime.start.p0(i64 8, ptr %11) #6
  %80 = load ptr, ptr %5, align 8, !tbaa !3
  %81 = getelementptr inbounds nuw %struct.lv_style_t, ptr %80, i32 0, i32 2
  %82 = load i8, ptr %81, align 4, !tbaa !9
  %83 = zext i8 %82 to i32
  %84 = add nsw i32 %83, 1
  %85 = sext i32 %84 to i64
  %86 = mul i64 %85, 9
  store i64 %86, ptr %11, align 8, !tbaa !7
  call void @llvm.lifetime.start.p0(i64 8, ptr %12) #6
  %87 = load ptr, ptr %5, align 8, !tbaa !3
  %88 = getelementptr inbounds nuw %struct.lv_style_t, ptr %87, i32 0, i32 0
  %89 = load ptr, ptr %88, align 8, !tbaa !12
  %90 = load i64, ptr %11, align 8, !tbaa !7
  %91 = call ptr @lv_realloc(ptr noundef %89, i64 noundef %90)
  store ptr %91, ptr %12, align 8, !tbaa !3
  %92 = load ptr, ptr %12, align 8, !tbaa !3
  %93 = icmp eq ptr %92, null
  br i1 %93, label %94, label %95

94:                                               ; preds = %79
  store i32 1, ptr %10, align 4
  br label %166

95:                                               ; preds = %79
  %96 = load ptr, ptr %12, align 8, !tbaa !3
  %97 = load ptr, ptr %5, align 8, !tbaa !3
  %98 = getelementptr inbounds nuw %struct.lv_style_t, ptr %97, i32 0, i32 0
  store ptr %96, ptr %98, align 8, !tbaa !12
  %99 = load ptr, ptr %12, align 8, !tbaa !3
  %100 = load ptr, ptr %5, align 8, !tbaa !3
  %101 = getelementptr inbounds nuw %struct.lv_style_t, ptr %100, i32 0, i32 2
  %102 = load i8, ptr %101, align 4, !tbaa !9
  %103 = zext i8 %102 to i64
  %104 = mul i64 %103, 8
  %105 = getelementptr inbounds nuw i8, ptr %99, i64 %104
  store ptr %105, ptr %7, align 8, !tbaa !3
  %106 = load ptr, ptr %5, align 8, !tbaa !3
  %107 = getelementptr inbounds nuw %struct.lv_style_t, ptr %106, i32 0, i32 2
  %108 = load i8, ptr %107, align 4, !tbaa !9
  %109 = zext i8 %108 to i32
  %110 = sub nsw i32 %109, 1
  store i32 %110, ptr %8, align 4, !tbaa !26
  br label %111

111:                                              ; preds = %125, %95
  %112 = load i32, ptr %8, align 4, !tbaa !26
  %113 = icmp sge i32 %112, 0
  br i1 %113, label %114, label %128

114:                                              ; preds = %111
  %115 = load ptr, ptr %7, align 8, !tbaa !3
  %116 = load i32, ptr %8, align 4, !tbaa !26
  %117 = sext i32 %116 to i64
  %118 = getelementptr inbounds i8, ptr %115, i64 %117
  %119 = load i8, ptr %118, align 1, !tbaa !13
  %120 = load ptr, ptr %7, align 8, !tbaa !3
  %121 = load i32, ptr %8, align 4, !tbaa !26
  %122 = sext i32 %121 to i64
  %123 = add i64 %122, 8
  %124 = getelementptr inbounds nuw i8, ptr %120, i64 %123
  store i8 %119, ptr %124, align 1, !tbaa !13
  br label %125

125:                                              ; preds = %114
  %126 = load i32, ptr %8, align 4, !tbaa !26
  %127 = add nsw i32 %126, -1
  store i32 %127, ptr %8, align 4, !tbaa !26
  br label %111, !llvm.loop !32

128:                                              ; preds = %111
  %129 = load ptr, ptr %5, align 8, !tbaa !3
  %130 = getelementptr inbounds nuw %struct.lv_style_t, ptr %129, i32 0, i32 2
  %131 = load i8, ptr %130, align 4, !tbaa !9
  %132 = add i8 %131, 1
  store i8 %132, ptr %130, align 4, !tbaa !9
  %133 = load ptr, ptr %12, align 8, !tbaa !3
  %134 = load ptr, ptr %5, align 8, !tbaa !3
  %135 = getelementptr inbounds nuw %struct.lv_style_t, ptr %134, i32 0, i32 2
  %136 = load i8, ptr %135, align 4, !tbaa !9
  %137 = zext i8 %136 to i64
  %138 = mul i64 %137, 8
  %139 = getelementptr inbounds nuw i8, ptr %133, i64 %138
  store ptr %139, ptr %7, align 8, !tbaa !3
  call void @llvm.lifetime.start.p0(i64 8, ptr %13) #6
  %140 = load ptr, ptr %12, align 8, !tbaa !3
  store ptr %140, ptr %13, align 8, !tbaa !3
  %141 = load i8, ptr %6, align 1, !tbaa !13
  %142 = load ptr, ptr %7, align 8, !tbaa !3
  %143 = load ptr, ptr %5, align 8, !tbaa !3
  %144 = getelementptr inbounds nuw %struct.lv_style_t, ptr %143, i32 0, i32 2
  %145 = load i8, ptr %144, align 4, !tbaa !9
  %146 = zext i8 %145 to i32
  %147 = sub nsw i32 %146, 1
  %148 = sext i32 %147 to i64
  %149 = getelementptr inbounds i8, ptr %142, i64 %148
  store i8 %141, ptr %149, align 1, !tbaa !13
  %150 = load ptr, ptr %13, align 8, !tbaa !3
  %151 = load ptr, ptr %5, align 8, !tbaa !3
  %152 = getelementptr inbounds nuw %struct.lv_style_t, ptr %151, i32 0, i32 2
  %153 = load i8, ptr %152, align 4, !tbaa !9
  %154 = zext i8 %153 to i32
  %155 = sub nsw i32 %154, 1
  %156 = sext i32 %155 to i64
  %157 = getelementptr inbounds %union.lv_style_value_t, ptr %150, i64 %156
  call void @llvm.memcpy.p0.p0.i64(ptr align 8 %157, ptr align 8 %4, i64 8, i1 false), !tbaa.struct !27
  call void @llvm.lifetime.start.p0(i64 4, ptr %14) #6
  %158 = load i8, ptr %6, align 1, !tbaa !13
  %159 = call i32 @lv_style_get_prop_group(i8 noundef zeroext %158)
  store i32 %159, ptr %14, align 4, !tbaa !26
  %160 = load i32, ptr %14, align 4, !tbaa !26
  %161 = shl i32 1, %160
  %162 = load ptr, ptr %5, align 8, !tbaa !3
  %163 = getelementptr inbounds nuw %struct.lv_style_t, ptr %162, i32 0, i32 1
  %164 = load i32, ptr %163, align 8, !tbaa !33
  %165 = or i32 %164, %161
  store i32 %165, ptr %163, align 8, !tbaa !33
  call void @llvm.lifetime.end.p0(i64 4, ptr %14) #6
  call void @llvm.lifetime.end.p0(i64 8, ptr %13) #6
  store i32 0, ptr %10, align 4
  br label %166

166:                                              ; preds = %128, %94
  call void @llvm.lifetime.end.p0(i64 8, ptr %12) #6
  call void @llvm.lifetime.end.p0(i64 8, ptr %11) #6
  br label %167

167:                                              ; preds = %166, %66
  call void @llvm.lifetime.end.p0(i64 4, ptr %8) #6
  call void @llvm.lifetime.end.p0(i64 8, ptr %7) #6
  %168 = load i32, ptr %10, align 4
  switch i32 %168, label %170 [
    i32 0, label %169
    i32 1, label %169
  ]

169:                                              ; preds = %22, %167, %167
  ret void

170:                                              ; preds = %167
  unreachable
}