; Function Attrs: nounwind uwtable
define void @lv_style_set_prop(ptr nocapture noundef %0, i8 noundef zeroext %1, ptr %2) local_unnamed_addr #0 {
  %4 = getelementptr i8, ptr %0, i64 12
  %.val = load i8, ptr %4, align 4, !tbaa !3
  %5 = icmp eq i8 %.val, -1
  br i1 %5, label %50, label %6

6:                                                ; preds = %3
  %.not = icmp eq i8 %1, 0
  br i1 %.not, label %.preheader, label %7

.preheader:                                       ; preds = %6, %.preheader
  br label %.preheader

7:                                                ; preds = %6
  %8 = load ptr, ptr %0, align 8, !tbaa !9
  %.not44 = icmp eq ptr %8, null
  %.pre51 = zext i8 %.val to i64
  br i1 %.not44, label %.loopexit, label %9

9:                                                ; preds = %7
  %10 = shl nuw nsw i64 %.pre51, 3
  %11 = getelementptr inbounds nuw i8, ptr %8, i64 %10
  br label %12

12:                                               ; preds = %14, %9
  %indvars.iv = phi i64 [ %indvars.iv.next, %14 ], [ %.pre51, %9 ]
  %13 = icmp sgt i64 %indvars.iv, 0
  br i1 %13, label %14, label %.loopexit

14:                                               ; preds = %12
  %indvars.iv.next = add nsw i64 %indvars.iv, -1
  %15 = getelementptr inbounds i8, ptr %11, i64 %indvars.iv.next
  %16 = load i8, ptr %15, align 1, !tbaa !23
  %17 = icmp eq i8 %16, %1
  br i1 %17, label %18, label %12, !llvm.loop !27

18:                                               ; preds = %14
  %19 = getelementptr inbounds %union.lv_style_value_t, ptr %8, i64 %indvars.iv.next
  store ptr %2, ptr %19, align 8, !tbaa !23
  br label %50

.loopexit:                                        ; preds = %12, %7
  %20 = mul nuw nsw i64 %.pre51, 9
  %21 = add nuw nsw i64 %20, 9
  %22 = tail call ptr @lv_realloc(ptr noundef %8, i64 noundef %21) #7
  %23 = icmp eq ptr %22, null
  br i1 %23, label %50, label %24

24:                                               ; preds = %.loopexit
  store ptr %22, ptr %0, align 8, !tbaa !9
  %25 = load i8, ptr %4, align 4, !tbaa !3
  %26 = zext i8 %25 to i64
  %27 = shl nuw nsw i64 %26, 3
  %28 = getelementptr inbounds nuw i8, ptr %22, i64 %27
  %.not46 = icmp eq i8 %25, 0
  br i1 %.not46, label %._crit_edge, label %.lr.ph

.lr.ph:                                           ; preds = %24, %.lr.ph
  %indvars.iv48 = phi i64 [ %indvars.iv.next49, %.lr.ph ], [ %26, %24 ]
  %indvars.iv.next49 = add nsw i64 %indvars.iv48, -1
  %29 = getelementptr inbounds i8, ptr %28, i64 %indvars.iv.next49
  %30 = load i8, ptr %29, align 1, !tbaa !23
  %31 = getelementptr inbounds i8, ptr %29, i64 8
  store i8 %30, ptr %31, align 1, !tbaa !23
  %32 = icmp ugt i64 %indvars.iv48, 1
  br i1 %32, label %.lr.ph, label %._crit_edge.loopexit, !llvm.loop !28

._crit_edge.loopexit:                             ; preds = %.lr.ph
  %.pre = load i8, ptr %4, align 4, !tbaa !3
  %33 = add i8 %.pre, 1
  br label %._crit_edge

._crit_edge:                                      ; preds = %._crit_edge.loopexit, %24
  %34 = phi i8 [ %33, %._crit_edge.loopexit ], [ 1, %24 ]
  store i8 %34, ptr %4, align 4, !tbaa !3
  %35 = zext i8 %34 to i64
  %36 = shl nuw nsw i64 %35, 3
  %37 = getelementptr inbounds nuw i8, ptr %22, i64 %36
  %38 = getelementptr i8, ptr %37, i64 %35
  %39 = getelementptr i8, ptr %38, i64 -1
  store i8 %1, ptr %39, align 1, !tbaa !23
  %40 = load i8, ptr %4, align 4, !tbaa !3
  %41 = zext i8 %40 to i64
  %42 = getelementptr %union.lv_style_value_t, ptr %22, i64 %41
  %43 = getelementptr i8, ptr %42, i64 -8
  store ptr %2, ptr %43, align 8, !tbaa !23
  %44 = lshr i8 %1, 2
  %45 = icmp ugt i8 %1, 123
  %narrow.i = select i1 %45, i8 31, i8 %44
  %spec.store.select.i = zext nneg i8 %narrow.i to i32
  %46 = shl nuw i32 1, %spec.store.select.i
  %47 = getelementptr inbounds nuw i8, ptr %0, i64 8
  %48 = load i32, ptr %47, align 8, !tbaa !29
  %49 = or i32 %48, %46
  store i32 %49, ptr %47, align 8, !tbaa !29
  br label %50

50:                                               ; preds = %18, %.loopexit, %._crit_edge, %3
  ret void
}